target datalayout = "e-m:e-p270:32:32-p271:32:32-p272:64:64-i64:64-i128:128-f80:128-n8:16:32:64-S128"
target triple = "x86_64-pc-linux-gnu"

%"struct.std::_Vector_base.6" = type { %"struct.std::_Vector_base<std::vector<int>, std::allocator<std::vector<int>>>::_Vector_impl" }
%"struct.std::_Vector_base<std::vector<int>, std::allocator<std::vector<int>>>::_Vector_impl" = type { %"struct.std::_Vector_base<std::vector<int>, std::allocator<std::vector<int>>>::_Vector_impl_data" }
%"struct.std::_Vector_base<std::vector<int>, std::allocator<std::vector<int>>>::_Vector_impl_data" = type { ptr, ptr, ptr }
%"class.std::vector.10" = type { %"struct.std::_Vector_base.11" }
%"struct.std::_Vector_base.11" = type { %"struct.std::_Vector_base<int, std::allocator<int>>::_Vector_impl" }
%"struct.std::_Vector_base<int, std::allocator<int>>::_Vector_impl" = type { %"struct.std::_Vector_base<int, std::allocator<int>>::_Vector_impl_data" }
%"struct.std::_Vector_base<int, std::allocator<int>>::_Vector_impl_data" = type { ptr, ptr, ptr }

@stderr = external global ptr, align 8
@.str.64 = private unnamed_addr constant [2 x i8] c",\00", align 1
@.str.79 = private unnamed_addr constant [2 x i8] c"[\00", align 1
@.str.81 = private unnamed_addr constant [2 x i8] c"]\00", align 1
@.str.82 = private unnamed_addr constant [3 x i8] c"%d\00", align 1

; Function Attrs: mustprogress nounwind uwtable
define linkonce_odr dso_local noundef nonnull align 4 dereferenceable(4) ptr @_ZNKSt6vectorIiSaIiEEixEm(ptr noundef nonnull align 8 dereferenceable(24) %0, i64 noundef %1) #2 comdat align 2 {
  %3 = alloca ptr, align 8
  %4 = alloca i64, align 8
  store ptr %0, ptr %3, align 8, !tbaa !60
  store i64 %1, ptr %4, align 8, !tbaa !149
  %5 = load ptr, ptr %3, align 8
  %6 = getelementptr inbounds nuw %"struct.std::_Vector_base.11", ptr %5, i32 0, i32 0
  %7 = getelementptr inbounds nuw %"struct.std::_Vector_base<int, std::allocator<int>>::_Vector_impl_data", ptr %6, i32 0, i32 0
  %8 = load ptr, ptr %7, align 8, !tbaa !69
  %9 = load i64, ptr %4, align 8, !tbaa !149
  %10 = getelementptr inbounds nuw i32, ptr %8, i64 %9
  ret ptr %10
}

; Function Attrs: mustprogress nounwind uwtable
define linkonce_odr dso_local noundef i64 @_ZNKSt6vectorIiSaIiEE4sizeEv(ptr noundef nonnull align 8 dereferenceable(24) %0) #2 comdat align 2 {
  %2 = alloca ptr, align 8
  store ptr %0, ptr %2, align 8, !tbaa !60
  %3 = load ptr, ptr %2, align 8
  %4 = getelementptr inbounds nuw %"struct.std::_Vector_base.11", ptr %3, i32 0, i32 0
  %5 = getelementptr inbounds nuw %"struct.std::_Vector_base<int, std::allocator<int>>::_Vector_impl_data", ptr %4, i32 0, i32 1
  %6 = load ptr, ptr %5, align 8, !tbaa !70
  %7 = getelementptr inbounds nuw %"struct.std::_Vector_base.11", ptr %3, i32 0, i32 0
  %8 = getelementptr inbounds nuw %"struct.std::_Vector_base<int, std::allocator<int>>::_Vector_impl_data", ptr %7, i32 0, i32 0
  %9 = load ptr, ptr %8, align 8, !tbaa !69
  %10 = ptrtoint ptr %6 to i64
  %11 = ptrtoint ptr %9 to i64
  %12 = sub i64 %10, %11
  %13 = sdiv exact i64 %12, 4
  ret i64 %13
}

; Function Attrs: mustprogress nounwind uwtable
define linkonce_odr dso_local noundef nonnull align 8 dereferenceable(24) ptr @_ZNKSt6vectorIS_IiSaIiEESaIS1_EEixEm(ptr noundef nonnull align 8 dereferenceable(24) %0, i64 noundef %1) #2 comdat align 2 {
  %3 = alloca ptr, align 8
  %4 = alloca i64, align 8
  store ptr %0, ptr %3, align 8, !tbaa !58
  store i64 %1, ptr %4, align 8, !tbaa !149
  %5 = load ptr, ptr %3, align 8
  %6 = getelementptr inbounds nuw %"struct.std::_Vector_base.6", ptr %5, i32 0, i32 0
  %7 = getelementptr inbounds nuw %"struct.std::_Vector_base<std::vector<int>, std::allocator<std::vector<int>>>::_Vector_impl_data", ptr %6, i32 0, i32 0
  %8 = load ptr, ptr %7, align 8, !tbaa !71
  %9 = load i64, ptr %4, align 8, !tbaa !149
  %10 = getelementptr inbounds nuw %"class.std::vector.10", ptr %8, i64 %9
  ret ptr %10
}

; Function Attrs: mustprogress nounwind uwtable
define linkonce_odr dso_local noundef i64 @_ZNKSt6vectorIS_IiSaIiEESaIS1_EE4sizeEv(ptr noundef nonnull align 8 dereferenceable(24) %0) #2 comdat align 2 {
  %2 = alloca ptr, align 8
  store ptr %0, ptr %2, align 8, !tbaa !58
  %3 = load ptr, ptr %2, align 8
  %4 = getelementptr inbounds nuw %"struct.std::_Vector_base.6", ptr %3, i32 0, i32 0
  %5 = getelementptr inbounds nuw %"struct.std::_Vector_base<std::vector<int>, std::allocator<std::vector<int>>>::_Vector_impl_data", ptr %4, i32 0, i32 1
  %6 = load ptr, ptr %5, align 8, !tbaa !72
  %7 = getelementptr inbounds nuw %"struct.std::_Vector_base.6", ptr %3, i32 0, i32 0
  %8 = getelementptr inbounds nuw %"struct.std::_Vector_base<std::vector<int>, std::allocator<std::vector<int>>>::_Vector_impl_data", ptr %7, i32 0, i32 0
  %9 = load ptr, ptr %8, align 8, !tbaa !71
  %10 = ptrtoint ptr %6 to i64
  %11 = ptrtoint ptr %9 to i64
  %12 = sub i64 %10, %11
  %13 = sdiv exact i64 %12, 24
  ret i64 %13
}

; Function Attrs: mustprogress nounwind uwtable
define internal void @_ZL20print_int_array_listRKSt6vectorIS_IiSaIiEESaIS1_EE(ptr noundef nonnull align 8 dereferenceable(24) %0) #2 {
  %2 = alloca ptr, align 8
  %3 = alloca i64, align 8
  %4 = alloca i32, align 4
  %5 = alloca ptr, align 8
  %6 = alloca i64, align 8
  store ptr %0, ptr %2, align 8, !tbaa !58
  call void @llvm.lifetime.start.p0(i64 8, ptr %3) #16
  store i64 0, ptr %3, align 8, !tbaa !149
  br label %7

7:                                                ; preds = %56, %1
  %8 = load i64, ptr %3, align 8, !tbaa !149
  %9 = load ptr, ptr %2, align 8, !tbaa !58
  %10 = call noundef i64 @_ZNKSt6vectorIS_IiSaIiEESaIS1_EE4sizeEv(ptr noundef nonnull align 8 dereferenceable(24) %9) #16
  %11 = icmp ult i64 %8, %10
  br i1 %11, label %13, label %12

12:                                               ; preds = %7
  store i32 2, ptr %4, align 4
  call void @llvm.lifetime.end.p0(i64 8, ptr %3) #16
  br label %59

13:                                               ; preds = %7
  call void @llvm.lifetime.start.p0(i64 8, ptr %5) #16
  %14 = load ptr, ptr %2, align 8, !tbaa !58
  %15 = load i64, ptr %3, align 8, !tbaa !149
  %16 = call noundef nonnull align 8 dereferenceable(24) ptr @_ZNKSt6vectorIS_IiSaIiEESaIS1_EEixEm(ptr noundef nonnull align 8 dereferenceable(24) %14, i64 noundef %15) #16
  store ptr %16, ptr %5, align 8, !tbaa !60
  %17 = load ptr, ptr @stderr, align 8, !tbaa !252
  %18 = call i32 (ptr, ptr, ...) @fprintf(ptr noundef %17, ptr noundef @.str.79) #16
  call void @llvm.lifetime.start.p0(i64 8, ptr %6) #16
  store i64 0, ptr %6, align 8, !tbaa !149
  br label %19

19:                                               ; preds = %41, %13
  %20 = load i64, ptr %6, align 8, !tbaa !149
  %21 = load ptr, ptr %5, align 8, !tbaa !60
  %22 = call noundef i64 @_ZNKSt6vectorIiSaIiEE4sizeEv(ptr noundef nonnull align 8 dereferenceable(24) %21) #16
  %23 = icmp ult i64 %20, %22
  br i1 %23, label %25, label %24

24:                                               ; preds = %19
  store i32 5, ptr %4, align 4
  call void @llvm.lifetime.end.p0(i64 8, ptr %6) #16
  br label %44

25:                                               ; preds = %19
  %26 = load ptr, ptr @stderr, align 8, !tbaa !252
  %27 = load ptr, ptr %5, align 8, !tbaa !60
  %28 = load i64, ptr %6, align 8, !tbaa !149
  %29 = call noundef nonnull align 4 dereferenceable(4) ptr @_ZNKSt6vectorIiSaIiEEixEm(ptr noundef nonnull align 8 dereferenceable(24) %27, i64 noundef %28) #16
  %30 = load i32, ptr %29, align 4, !tbaa !137
  %31 = call i32 (ptr, ptr, ...) @fprintf(ptr noundef %26, ptr noundef @.str.82, i32 noundef %30) #16
  %32 = load i64, ptr %6, align 8, !tbaa !149
  %33 = load ptr, ptr %5, align 8, !tbaa !60
  %34 = call noundef i64 @_ZNKSt6vectorIiSaIiEE4sizeEv(ptr noundef nonnull align 8 dereferenceable(24) %33) #16
  %35 = sub i64 %34, 1
  %36 = icmp ne i64 %32, %35
  br i1 %36, label %37, label %40

37:                                               ; preds = %25
  %38 = load ptr, ptr @stderr, align 8, !tbaa !252
  %39 = call i32 (ptr, ptr, ...) @fprintf(ptr noundef %38, ptr noundef @.str.64) #16
  br label %40

40:                                               ; preds = %37, %25
  br label %41

41:                                               ; preds = %40
  %42 = load i64, ptr %6, align 8, !tbaa !149
  %43 = add i64 %42, 1
  store i64 %43, ptr %6, align 8, !tbaa !149
  br label %19, !llvm.loop !482

44:                                               ; preds = %24
  %45 = load ptr, ptr @stderr, align 8, !tbaa !252
  %46 = call i32 (ptr, ptr, ...) @fprintf(ptr noundef %45, ptr noundef @.str.81) #16
  %47 = load i64, ptr %3, align 8, !tbaa !149
  %48 = load ptr, ptr %2, align 8, !tbaa !58
  %49 = call noundef i64 @_ZNKSt6vectorIS_IiSaIiEESaIS1_EE4sizeEv(ptr noundef nonnull align 8 dereferenceable(24) %48) #16
  %50 = sub i64 %49, 1
  %51 = icmp ne i64 %47, %50
  br i1 %51, label %52, label %55

52:                                               ; preds = %44
  %53 = load ptr, ptr @stderr, align 8, !tbaa !252
  %54 = call i32 (ptr, ptr, ...) @fprintf(ptr noundef %53, ptr noundef @.str.64) #16
  br label %55

55:                                               ; preds = %52, %44
  call void @llvm.lifetime.end.p0(i64 8, ptr %5) #16
  br label %56

56:                                               ; preds = %55
  %57 = load i64, ptr %3, align 8, !tbaa !149
  %58 = add i64 %57, 1
  store i64 %58, ptr %3, align 8, !tbaa !149
  br label %7, !llvm.loop !483

59:                                               ; preds = %12
  ret void
}