; Function Attrs: mustprogress nofree norecurse nounwind uwtable
define internal fastcc void @_ZL20print_int_array_listRKSt6vectorIS_IiSaIiEESaIS1_EE(ptr noundef nonnull readonly align 8 captures(none) dereferenceable(24) %0) unnamed_addr #23 {
  %2 = getelementptr inbounds nuw i8, ptr %0, i64 8
  %3 = load ptr, ptr %2, align 8, !tbaa !73
  %4 = load ptr, ptr %0, align 8, !tbaa !72
  %.not23 = icmp eq ptr %3, %4
  br i1 %.not23, label %._crit_edge22, label %.lr.ph21

._crit_edge22:                                    ; preds = %39, %1
  ret void

.lr.ph21:                                         ; preds = %1, %39
  %5 = phi ptr [ %40, %39 ], [ %4, %1 ]
  %.01319 = phi i64 [ %41, %39 ], [ 0, %1 ]
  %6 = getelementptr inbounds nuw %"class.std::vector.10", ptr %5, i64 %.01319
  %7 = load ptr, ptr @stderr, align 8, !tbaa !138
  %fputc = tail call i32 @fputc(i32 91, ptr %7)
  %8 = getelementptr inbounds nuw i8, ptr %6, i64 8
  %9 = load ptr, ptr %8, align 8, !tbaa !99
  %10 = load ptr, ptr %6, align 8, !tbaa !52
  %.not24 = icmp eq ptr %9, %10
  br i1 %.not24, label %._crit_edge, label %.lr.ph

._crit_edge:                                      ; preds = %33, %.lr.ph21
  %11 = load ptr, ptr @stderr, align 8, !tbaa !138
  %fputc14 = tail call i32 @fputc(i32 93, ptr %11)
  %12 = load ptr, ptr %2, align 8, !tbaa !73
  %13 = load ptr, ptr %0, align 8, !tbaa !72
  %14 = ptrtoint ptr %12 to i64
  %15 = ptrtoint ptr %13 to i64
  %16 = sub i64 %14, %15
  %17 = sdiv exact i64 %16, 24
  %18 = add nsw i64 %17, -1
  %.not = icmp eq i64 %.01319, %18
  br i1 %.not, label %39, label %37

.lr.ph:                                           ; preds = %.lr.ph21, %33
  %19 = phi ptr [ %34, %33 ], [ %10, %.lr.ph21 ]
  %.018 = phi i64 [ %35, %33 ], [ 0, %.lr.ph21 ]
  %20 = load ptr, ptr @stderr, align 8, !tbaa !138
  %21 = getelementptr inbounds nuw i32, ptr %19, i64 %.018
  %22 = load i32, ptr %21, align 4, !tbaa !101
  %23 = tail call i32 (ptr, ptr, ...) @fprintf(ptr noundef %20, ptr noundef nonnull @.str.82, i32 noundef %22) #36
  %24 = load ptr, ptr %8, align 8, !tbaa !99
  %25 = load ptr, ptr %6, align 8, !tbaa !52
  %26 = ptrtoint ptr %24 to i64
  %27 = ptrtoint ptr %25 to i64
  %28 = sub i64 %26, %27
  %29 = ashr exact i64 %28, 2
  %30 = add nsw i64 %29, -1
  %.not16 = icmp eq i64 %.018, %30
  br i1 %.not16, label %33, label %31

31:                                               ; preds = %.lr.ph
  %32 = load ptr, ptr @stderr, align 8, !tbaa !138
  %fputc17 = tail call i32 @fputc(i32 44, ptr %32)
  %.pre = load ptr, ptr %8, align 8, !tbaa !99
  %.pre25 = load ptr, ptr %6, align 8, !tbaa !52
  %.pre35 = ptrtoint ptr %.pre to i64
  %.pre37 = ptrtoint ptr %.pre25 to i64
  %.pre39 = sub i64 %.pre35, %.pre37
  %.pre41 = ashr exact i64 %.pre39, 2
  br label %33

33:                                               ; preds = %.lr.ph, %31
  %.pre-phi42 = phi i64 [ %29, %.lr.ph ], [ %.pre41, %31 ]
  %34 = phi ptr [ %25, %.lr.ph ], [ %.pre25, %31 ]
  %35 = add nuw i64 %.018, 1
  %36 = icmp ult i64 %35, %.pre-phi42
  br i1 %36, label %.lr.ph, label %._crit_edge, !llvm.loop !362

37:                                               ; preds = %._crit_edge
  %38 = load ptr, ptr @stderr, align 8, !tbaa !138
  %fputc15 = tail call i32 @fputc(i32 44, ptr %38)
  %.pre26 = load ptr, ptr %2, align 8, !tbaa !73
  %.pre27 = load ptr, ptr %0, align 8, !tbaa !72
  %.pre28 = ptrtoint ptr %.pre26 to i64
  %.pre29 = ptrtoint ptr %.pre27 to i64
  %.pre31 = sub i64 %.pre28, %.pre29
  %.pre33 = sdiv exact i64 %.pre31, 24
  br label %39

39:                                               ; preds = %37, %._crit_edge
  %.pre-phi34 = phi i64 [ %.pre33, %37 ], [ %17, %._crit_edge ]
  %40 = phi ptr [ %.pre27, %37 ], [ %13, %._crit_edge ]
  %41 = add nuw i64 %.01319, 1
  %42 = icmp ult i64 %41, %.pre-phi34
  br i1 %42, label %.lr.ph21, label %._crit_edge22, !llvm.loop !363
}